target datalayout = "e-m:e-p270:32:32-p271:32:32-p272:64:64-i64:64-i128:128-f80:128-n8:16:32:64-S128"
target triple = "x86_64-unknown-linux-gnu"

@qemu_loglevel = external global i32, align 4
@.str.169 = private unnamed_addr constant [23 x i8] c"ahci: IRQ#%d level:%d\0A\00", align 1

; Function Attrs: nounwind sspstrong uwtable
define internal zeroext i1 @qemu_loglevel_mask(i32 noundef %mask) #0 {
entry:
  %mask.addr = alloca i32, align 4
  store i32 %mask, ptr %mask.addr, align 4
  %0 = load i32, ptr @qemu_loglevel, align 4
  %1 = load i32, ptr %mask.addr, align 4
  %and = and i32 %0, %1
  %cmp = icmp ne i32 %and, 0
  ret i1 %cmp
}

; Function Attrs: nounwind sspstrong uwtable
define internal void @ahci_irq_set(ptr noundef %opaque, i32 noundef %n, i32 noundef %level) #0 {
entry:
  %opaque.addr = alloca ptr, align 8
  %n.addr = alloca i32, align 4
  %level.addr = alloca i32, align 4
  store ptr %opaque, ptr %opaque.addr, align 8
  store i32 %n, ptr %n.addr, align 4
  store i32 %level, ptr %level.addr, align 4
  br label %do.body

do.body:                                          ; preds = %entry
  %call = call zeroext i1 @qemu_loglevel_mask(i32 noundef 1024)
  %lnot = xor i1 %call, true
  %lnot1 = xor i1 %lnot, true
  %lnot.ext = zext i1 %lnot1 to i32
  %conv = sext i32 %lnot.ext to i64
  %tobool = icmp ne i64 %conv, 0
  br i1 %tobool, label %if.then, label %if.end

if.then:                                          ; preds = %do.body
  %0 = load i32, ptr %n.addr, align 4
  %1 = load i32, ptr %level.addr, align 4
  call void (ptr, ...) @qemu_log(ptr noundef @.str.169, i32 noundef %0, i32 noundef %1)
  br label %if.end

if.end:                                           ; preds = %if.then, %do.body
  br label %do.end

do.end:                                           ; preds = %if.end
  ret void
}