; Function Attrs: nounwind sspstrong uwtable
define internal void @ahci_irq_set(ptr readnone captures(none) %opaque, i32 noundef %n, i32 noundef %level) #0 {
entry:
  %0 = load i32, ptr @qemu_loglevel, align 4
  %and.i = and i32 %0, 1024
  %cmp.i.not = icmp eq i32 %and.i, 0
  br i1 %cmp.i.not, label %do.end, label %if.then

if.then:                                          ; preds = %entry
  tail call void (ptr, ...) @qemu_log(ptr noundef nonnull @.str.169, i32 noundef %n, i32 noundef %level) #12
  br label %do.end

do.end:                                           ; preds = %entry, %if.then
  ret void
}